target datalayout = "e-m:e-p270:32:32-p271:32:32-p272:64:64-i64:64-i128:128-f80:128-n8:16:32:64-S128"
target triple = "x86_64-unknown-linux-gnu"

%"class.icu_75::UObject" = type { ptr }
%"class.icu_75::FilteredNormalizer2" = type { %"class.icu_75::Normalizer2", ptr, ptr }
%"class.icu_75::Normalizer2" = type { %"class.icu_75::UObject" }
%"class.icu_75::StringPiece" = type <{ ptr, i32, [4 x i8] }>

; Function Attrs: mustprogress nounwind uwtable
define linkonce_odr void @_ZN6icu_7511StringPieceC2EPKci(ptr noundef nonnull align 8 dereferenceable(12) %this, ptr noundef %offset, i32 noundef %len) unnamed_addr #0 comdat align 2 {
entry:
  %this.addr = alloca ptr, align 8
  %offset.addr = alloca ptr, align 8
  %len.addr = alloca i32, align 4
  store ptr %this, ptr %this.addr, align 8
  store ptr %offset, ptr %offset.addr, align 8
  store i32 %len, ptr %len.addr, align 4
  %this1 = load ptr, ptr %this.addr, align 8
  %ptr_ = getelementptr inbounds %"class.icu_75::StringPiece", ptr %this1, i32 0, i32 0
  %0 = load ptr, ptr %offset.addr, align 8
  store ptr %0, ptr %ptr_, align 8
  %length_ = getelementptr inbounds %"class.icu_75::StringPiece", ptr %this1, i32 0, i32 1
  %1 = load i32, ptr %len.addr, align 4
  store i32 %1, ptr %length_, align 8
  ret void
}

; Function Attrs: mustprogress nounwind uwtable
define linkonce_odr noundef i32 @_ZNK6icu_7511StringPiece6lengthEv(ptr noundef nonnull align 8 dereferenceable(12) %this) #0 comdat align 2 {
entry:
  %this.addr = alloca ptr, align 8
  store ptr %this, ptr %this.addr, align 8
  %this1 = load ptr, ptr %this.addr, align 8
  %length_ = getelementptr inbounds %"class.icu_75::StringPiece", ptr %this1, i32 0, i32 1
  %0 = load i32, ptr %length_, align 8
  ret i32 %0
}

; Function Attrs: mustprogress nounwind uwtable
define linkonce_odr noundef ptr @_ZNK6icu_7511StringPiece4dataEv(ptr noundef nonnull align 8 dereferenceable(12) %this) #0 comdat align 2 {
entry:
  %this.addr = alloca ptr, align 8
  store ptr %this, ptr %this.addr, align 8
  %this1 = load ptr, ptr %this.addr, align 8
  %ptr_ = getelementptr inbounds %"class.icu_75::StringPiece", ptr %this1, i32 0, i32 0
  %0 = load ptr, ptr %ptr_, align 8
  ret ptr %0
}

; Function Attrs: mustprogress nounwind uwtable
define internal noundef signext i8 @_ZL9U_FAILURE10UErrorCode(i32 noundef %code) #0 {
entry:
  %code.addr = alloca i32, align 4
  store i32 %code, ptr %code.addr, align 4
  %0 = load i32, ptr %code.addr, align 4
  %cmp = icmp sgt i32 %0, 0
  %conv = zext i1 %cmp to i8
  ret i8 %conv
}

; Function Attrs: mustprogress uwtable
define noundef signext i8 @_ZNK6icu_7519FilteredNormalizer216isNormalizedUTF8ENS_11StringPieceER10UErrorCode(ptr noundef nonnull align 8 dereferenceable(24) %this, ptr %sp.coerce0, i32 %sp.coerce1, ptr noundef nonnull align 4 dereferenceable(4) %errorCode) unnamed_addr #2 align 2 {
entry:
  %retval = alloca i8, align 1
  %sp = alloca %"class.icu_75::StringPiece", align 8
  %this.addr = alloca ptr, align 8
  %errorCode.addr = alloca ptr, align 8
  %s = alloca ptr, align 8
  %length = alloca i32, align 4
  %spanCondition = alloca i32, align 4
  %spanLength = alloca i32, align 4
  %agg.tmp = alloca %"class.icu_75::StringPiece", align 8
  %0 = getelementptr inbounds { ptr, i32 }, ptr %sp, i32 0, i32 0
  store ptr %sp.coerce0, ptr %0, align 8
  %1 = getelementptr inbounds { ptr, i32 }, ptr %sp, i32 0, i32 1
  store i32 %sp.coerce1, ptr %1, align 8
  store ptr %this, ptr %this.addr, align 8
  store ptr %errorCode, ptr %errorCode.addr, align 8
  %this1 = load ptr, ptr %this.addr, align 8
  %2 = load ptr, ptr %errorCode.addr, align 8
  %3 = load i32, ptr %2, align 4
  %call = call noundef signext i8 @_ZL9U_FAILURE10UErrorCode(i32 noundef %3)
  %tobool = icmp ne i8 %call, 0
  br i1 %tobool, label %if.then, label %if.end

if.then:                                          ; preds = %entry
  store i8 0, ptr %retval, align 1
  br label %return

if.end:                                           ; preds = %entry
  %call2 = call noundef ptr @_ZNK6icu_7511StringPiece4dataEv(ptr noundef nonnull align 8 dereferenceable(12) %sp)
  store ptr %call2, ptr %s, align 8
  %call3 = call noundef i32 @_ZNK6icu_7511StringPiece6lengthEv(ptr noundef nonnull align 8 dereferenceable(12) %sp)
  store i32 %call3, ptr %length, align 4
  store i32 2, ptr %spanCondition, align 4
  br label %while.cond

while.cond:                                       ; preds = %if.end13, %if.end
  %4 = load i32, ptr %length, align 4
  %cmp = icmp sgt i32 %4, 0
  br i1 %cmp, label %while.body, label %while.end

while.body:                                       ; preds = %while.cond
  %set = getelementptr inbounds %"class.icu_75::FilteredNormalizer2", ptr %this1, i32 0, i32 2
  %5 = load ptr, ptr %set, align 8
  %6 = load ptr, ptr %s, align 8
  %7 = load i32, ptr %length, align 4
  %8 = load i32, ptr %spanCondition, align 4
  %call4 = call noundef i32 @_ZNK6icu_7510UnicodeSet8spanUTF8EPKci17USetSpanCondition(ptr noundef nonnull align 8 dereferenceable(200) %5, ptr noundef %6, i32 noundef %7, i32 noundef %8)
  store i32 %call4, ptr %spanLength, align 4
  %9 = load i32, ptr %spanCondition, align 4
  %cmp5 = icmp eq i32 %9, 0
  br i1 %cmp5, label %if.then6, label %if.else

if.then6:                                         ; preds = %while.body
  store i32 2, ptr %spanCondition, align 4
  br label %if.end13

if.else:                                          ; preds = %while.body
  %norm2 = getelementptr inbounds %"class.icu_75::FilteredNormalizer2", ptr %this1, i32 0, i32 1
  %10 = load ptr, ptr %norm2, align 8
  %11 = load ptr, ptr %s, align 8
  %12 = load i32, ptr %spanLength, align 4
  call void @_ZN6icu_7511StringPieceC2EPKci(ptr noundef nonnull align 8 dereferenceable(12) %agg.tmp, ptr noundef %11, i32 noundef %12)
  %13 = load ptr, ptr %errorCode.addr, align 8
  %14 = getelementptr inbounds { ptr, i32 }, ptr %agg.tmp, i32 0, i32 0
  %15 = load ptr, ptr %14, align 8
  %16 = getelementptr inbounds { ptr, i32 }, ptr %agg.tmp, i32 0, i32 1
  %17 = load i32, ptr %16, align 8
  %vtable = load ptr, ptr %10, align 8
  %vfn = getelementptr inbounds ptr, ptr %vtable, i64 12
  %18 = load ptr, ptr %vfn, align 8
  %call7 = call noundef signext i8 %18(ptr noundef nonnull align 8 dereferenceable(8) %10, ptr %15, i32 %17, ptr noundef nonnull align 4 dereferenceable(4) %13)
  %tobool8 = icmp ne i8 %call7, 0
  br i1 %tobool8, label %lor.lhs.false, label %if.then11

lor.lhs.false:                                    ; preds = %if.else
  %19 = load ptr, ptr %errorCode.addr, align 8
  %20 = load i32, ptr %19, align 4
  %call9 = call noundef signext i8 @_ZL9U_FAILURE10UErrorCode(i32 noundef %20)
  %tobool10 = icmp ne i8 %call9, 0
  br i1 %tobool10, label %if.then11, label %if.end12

if.then11:                                        ; preds = %lor.lhs.false, %if.else
  store i8 0, ptr %retval, align 1
  br label %return

if.end12:                                         ; preds = %lor.lhs.false
  store i32 0, ptr %spanCondition, align 4
  br label %if.end13

if.end13:                                         ; preds = %if.end12, %if.then6
  %21 = load i32, ptr %spanLength, align 4
  %22 = load ptr, ptr %s, align 8
  %idx.ext = sext i32 %21 to i64
  %add.ptr = getelementptr inbounds i8, ptr %22, i64 %idx.ext
  store ptr %add.ptr, ptr %s, align 8
  %23 = load i32, ptr %spanLength, align 4
  %24 = load i32, ptr %length, align 4
  %sub = sub nsw i32 %24, %23
  store i32 %sub, ptr %length, align 4
  br label %while.cond, !llvm.loop !8

while.end:                                        ; preds = %while.cond
  store i8 1, ptr %retval, align 1
  br label %return

return:                                           ; preds = %while.end, %if.then11, %if.then
  %25 = load i8, ptr %retval, align 1
  ret i8 %25
}