; Function Attrs: mustprogress uwtable
define noundef signext i8 @_ZNK6icu_7519FilteredNormalizer216isNormalizedUTF8ENS_11StringPieceER10UErrorCode(ptr nocapture noundef nonnull readonly align 8 dereferenceable(24) %this, ptr %sp.coerce0, i32 %sp.coerce1, ptr noundef nonnull align 4 dereferenceable(4) %errorCode) unnamed_addr #2 align 2 {
entry:
  %0 = load i32, ptr %errorCode, align 4
  %cmp.i = icmp slt i32 %0, 1
  br i1 %cmp.i, label %while.cond.preheader, label %return

while.cond.preheader:                             ; preds = %entry
  %cmp13 = icmp sgt i32 %sp.coerce1, 0
  br i1 %cmp13, label %while.body.lr.ph, label %return

while.body.lr.ph:                                 ; preds = %while.cond.preheader
  %set = getelementptr inbounds i8, ptr %this, i64 16
  %norm2 = getelementptr inbounds i8, ptr %this, i64 8
  br label %while.body

while.body:                                       ; preds = %while.body.lr.ph, %if.end13
  %spanCondition.016 = phi i32 [ 2, %while.body.lr.ph ], [ %spanCondition.1, %if.end13 ]
  %length.015 = phi i32 [ %sp.coerce1, %while.body.lr.ph ], [ %sub, %if.end13 ]
  %s.014 = phi ptr [ %sp.coerce0, %while.body.lr.ph ], [ %add.ptr, %if.end13 ]
  %1 = load ptr, ptr %set, align 8
  %call4 = tail call noundef i32 @_ZNK6icu_7510UnicodeSet8spanUTF8EPKci17USetSpanCondition(ptr noundef nonnull align 8 dereferenceable(200) %1, ptr noundef %s.014, i32 noundef %length.015, i32 noundef %spanCondition.016)
  %cmp5 = icmp eq i32 %spanCondition.016, 0
  br i1 %cmp5, label %if.end13, label %if.else

if.else:                                          ; preds = %while.body
  %2 = load ptr, ptr %norm2, align 8
  %vtable = load ptr, ptr %2, align 8
  %vfn = getelementptr inbounds i8, ptr %vtable, i64 96
  %3 = load ptr, ptr %vfn, align 8
  %call7 = tail call noundef signext i8 %3(ptr noundef nonnull align 8 dereferenceable(8) %2, ptr %s.014, i32 %call4, ptr noundef nonnull align 4 dereferenceable(4) %errorCode)
  %tobool8.not = icmp ne i8 %call7, 0
  %4 = load i32, ptr %errorCode, align 4
  %cmp.i11 = icmp slt i32 %4, 1
  %or.cond = select i1 %tobool8.not, i1 %cmp.i11, i1 false
  br i1 %or.cond, label %if.end13, label %return

if.end13:                                         ; preds = %if.else, %while.body
  %spanCondition.1 = phi i32 [ 2, %while.body ], [ 0, %if.else ]
  %idx.ext = sext i32 %call4 to i64
  %add.ptr = getelementptr inbounds i8, ptr %s.014, i64 %idx.ext
  %sub = sub nsw i32 %length.015, %call4
  %cmp = icmp sgt i32 %sub, 0
  br i1 %cmp, label %while.body, label %return, !llvm.loop !8

return:                                           ; preds = %if.else, %if.end13, %while.cond.preheader, %entry
  %retval.0 = phi i8 [ 0, %entry ], [ 1, %while.cond.preheader ], [ 0, %if.else ], [ 1, %if.end13 ]
  ret i8 %retval.0
}